; Function Attrs: mustprogress nofree norecurse nosync nounwind willreturn memory(argmem: write) uwtable
define hidden void @_ZN5zxing6qrcode13FinderPattern21setVerticalCheckStateEi(ptr noundef nonnull writeonly align 8 captures(none) dereferenceable(40) %0, i32 noundef %1) local_unnamed_addr #7 align 2 {
  %3 = icmp ult i32 %1, 3
  br i1 %3, label %switch.lookup, label %5

switch.lookup:                                    ; preds = %2
  %switch.offset = add nuw nsw i32 %1, 3
  %4 = getelementptr inbounds nuw i8, ptr %0, i64 36
  store i32 %switch.offset, ptr %4, align 4, !tbaa !16
  br label %5

5:                                                ; preds = %2, %switch.lookup
  ret void
}